(dp1
S'session'
p2
(dp3
S'picture'
p4
Vhttps://lh4.googleusercontent.com/-5hoMuC9Ar7k/AAAAAAAAAAI/AAAAAAAAAUE/tPlDYzTEN70/photo.jpg
p5
sS'_accessed_time'
p6
F1578790870.007262
sS'email'
p7
Vritalu1357@gmail.com
p8
sS'_creation_time'
p9
F1578790586.3197739
ss.